; Function Attrs: nofree norecurse nosync nounwind memory(argmem: readwrite) uwtable
define void @Abc_SortMergeCost2(ptr noundef readonly %0, ptr noundef readnone %1, ptr noundef readonly %2, ptr noundef readnone %3, ptr noundef writeonly captures(none) %4, ptr noundef readonly captures(none) %5) local_unnamed_addr #0 {
  %7 = icmp ult ptr %0, %1
  %8 = icmp ult ptr %2, %3
  %9 = and i1 %7, %8
  br i1 %9, label %.lr.ph, label %.preheader41

.preheader41:                                     ; preds = %32, %6
  %.036.lcssa = phi ptr [ %4, %6 ], [ %.137, %32 ]
  %.033.lcssa = phi ptr [ %2, %6 ], [ %.134, %32 ]
  %.0.lcssa = phi ptr [ %0, %6 ], [ %.1, %32 ]
  %10 = icmp ult ptr %.0.lcssa, %1
  br i1 %10, label %.lr.ph49, label %.preheader

.lr.ph:                                           ; preds = %6, %32
  %.044 = phi ptr [ %.1, %32 ], [ %0, %6 ]
  %.03343 = phi ptr [ %.134, %32 ], [ %2, %6 ]
  %.03642 = phi ptr [ %.137, %32 ], [ %4, %6 ]
  %11 = load i32, ptr %.044, align 4
  %12 = sext i32 %11 to i64
  %13 = getelementptr inbounds i32, ptr %5, i64 %12
  %14 = load i32, ptr %13, align 4
  %15 = load i32, ptr %.03343, align 4
  %16 = sext i32 %15 to i64
  %17 = getelementptr inbounds i32, ptr %5, i64 %16
  %18 = load i32, ptr %17, align 4
  %19 = icmp eq i32 %14, %18
  %20 = getelementptr inbounds nuw i8, ptr %.03642, i64 4
  br i1 %19, label %21, label %26

21:                                               ; preds = %.lr.ph
  %22 = getelementptr inbounds nuw i8, ptr %.044, i64 4
  store i32 %11, ptr %.03642, align 4
  %23 = getelementptr inbounds nuw i8, ptr %.03343, i64 4
  %24 = load i32, ptr %.03343, align 4
  %25 = getelementptr inbounds nuw i8, ptr %.03642, i64 8
  store i32 %24, ptr %20, align 4
  br label %32

26:                                               ; preds = %.lr.ph
  %27 = icmp slt i32 %14, %18
  br i1 %27, label %28, label %30

28:                                               ; preds = %26
  %29 = getelementptr inbounds nuw i8, ptr %.044, i64 4
  store i32 %11, ptr %.03642, align 4
  br label %32

30:                                               ; preds = %26
  %31 = getelementptr inbounds nuw i8, ptr %.03343, i64 4
  store i32 %15, ptr %.03642, align 4
  br label %32

32:                                               ; preds = %28, %30, %21
  %.137 = phi ptr [ %25, %21 ], [ %20, %28 ], [ %20, %30 ]
  %.134 = phi ptr [ %23, %21 ], [ %.03343, %28 ], [ %31, %30 ]
  %.1 = phi ptr [ %22, %21 ], [ %29, %28 ], [ %.044, %30 ]
  %33 = icmp ult ptr %.1, %1
  %34 = icmp ult ptr %.134, %3
  %35 = select i1 %33, i1 %34, i1 false
  br i1 %35, label %.lr.ph, label %.preheader41, !llvm.loop !10

.preheader:                                       ; preds = %.lr.ph49, %.preheader41
  %.238.lcssa = phi ptr [ %.036.lcssa, %.preheader41 ], [ %39, %.lr.ph49 ]
  %36 = icmp ult ptr %.033.lcssa, %3
  br i1 %36, label %.lr.ph53, label %._crit_edge

.lr.ph49:                                         ; preds = %.preheader41, %.lr.ph49
  %.248 = phi ptr [ %37, %.lr.ph49 ], [ %.0.lcssa, %.preheader41 ]
  %.23847 = phi ptr [ %39, %.lr.ph49 ], [ %.036.lcssa, %.preheader41 ]
  %37 = getelementptr inbounds nuw i8, ptr %.248, i64 4
  %38 = load i32, ptr %.248, align 4
  %39 = getelementptr inbounds nuw i8, ptr %.23847, i64 4
  store i32 %38, ptr %.23847, align 4
  %40 = icmp ult ptr %37, %1
  br i1 %40, label %.lr.ph49, label %.preheader, !llvm.loop !11

.lr.ph53:                                         ; preds = %.preheader, %.lr.ph53
  %.23552 = phi ptr [ %41, %.lr.ph53 ], [ %.033.lcssa, %.preheader ]
  %.351 = phi ptr [ %43, %.lr.ph53 ], [ %.238.lcssa, %.preheader ]
  %41 = getelementptr inbounds nuw i8, ptr %.23552, i64 4
  %42 = load i32, ptr %.23552, align 4
  %43 = getelementptr inbounds nuw i8, ptr %.351, i64 4
  store i32 %42, ptr %.351, align 4
  %44 = icmp ult ptr %41, %3
  br i1 %44, label %.lr.ph53, label %._crit_edge, !llvm.loop !12

._crit_edge:                                      ; preds = %.lr.ph53, %.preheader
  ret void
}